; ModuleID = 'source-C-CXX/33/2320.c'
source_filename = "source-C-CXX/33/2320.c"
target datalayout = "e-m:e-p270:32:32-p271:32:32-p272:64:64-i64:64-f80:128-n8:16:32:64-S128"
target triple = "x86_64-pc-linux-gnu"

@.str = private unnamed_addr constant [3 x i8] c"%d\00", align 1
@.str.2 = private unnamed_addr constant [11 x i8] c"%d*3+1=%d\0A\00", align 1
@.str.3 = private unnamed_addr constant [9 x i8] c"%d/2=%d\0A\00", align 1
@str.4 = private unnamed_addr constant [4 x i8] c"End\00", align 1

; Function Attrs: nofree nounwind sspstrong uwtable
define dso_local void @main() local_unnamed_addr #0 {
  %1 = alloca i32, align 4
  %2 = bitcast i32* %1 to i8*
  call void @llvm.lifetime.start.p0i8(i64 4, i8* nonnull %2) #4
  %3 = call i32 (i8*, ...) @__isoc99_scanf(i8* getelementptr inbounds ([3 x i8], [3 x i8]* @.str, i64 0, i64 0), i32* nonnull %1)
  %4 = load i32, i32* %1, align 4, !tbaa !5
  %5 = icmp eq i32 %4, 1
  br i1 %5, label %6, label %10

6:                                                ; preds = %0
  %7 = call i32 @puts(i8* nonnull dereferenceable(1) getelementptr inbounds ([4 x i8], [4 x i8]* @str.4, i64 0, i64 0))
  %8 = load i32, i32* %1, align 4, !tbaa !5
  %9 = icmp eq i32 %8, 1
  br i1 %9, label %32, label %10

10:                                               ; preds = %0, %6
  %11 = phi i32 [ %4, %0 ], [ %8, %6 ]
  br label %12

12:                                               ; preds = %10, %27
  %13 = phi i32 [ %28, %27 ], [ %11, %10 ]
  %14 = srem i32 %13, 2
  %15 = icmp eq i32 %14, 1
  br i1 %15, label %16, label %20

16:                                               ; preds = %12
  %17 = mul nsw i32 %13, 3
  %18 = add nsw i32 %17, 1
  %19 = call i32 (i8*, ...) @printf(i8* nonnull dereferenceable(1) getelementptr inbounds ([11 x i8], [11 x i8]* @.str.2, i64 0, i64 0), i32 %13, i32 %18)
  store i32 %18, i32* %1, align 4, !tbaa !5
  br label %20

20:                                               ; preds = %16, %12
  %21 = phi i32 [ %18, %16 ], [ %13, %12 ]
  %22 = and i32 %21, 1
  %23 = icmp eq i32 %22, 0
  br i1 %23, label %24, label %27

24:                                               ; preds = %20
  %25 = sdiv i32 %21, 2
  %26 = call i32 (i8*, ...) @printf(i8* nonnull dereferenceable(1) getelementptr inbounds ([9 x i8], [9 x i8]* @.str.3, i64 0, i64 0), i32 %21, i32 %25)
  store i32 %25, i32* %1, align 4, !tbaa !5
  br label %27

27:                                               ; preds = %20, %24
  %28 = phi i32 [ %21, %20 ], [ %25, %24 ]
  %29 = icmp eq i32 %28, 1
  br i1 %29, label %30, label %12, !llvm.loop !9

30:                                               ; preds = %27
  %31 = call i32 @puts(i8* nonnull dereferenceable(1) getelementptr inbounds ([4 x i8], [4 x i8]* @str.4, i64 0, i64 0))
  br label %32

32:                                               ; preds = %30, %6
  call void @llvm.lifetime.end.p0i8(i64 4, i8* nonnull %2) #4
  ret void
}

; Function Attrs: argmemonly mustprogress nofree nosync nounwind willreturn
declare void @llvm.lifetime.start.p0i8(i64 immarg, i8* nocapture) #1

; Function Attrs: nofree nounwind
declare noundef i32 @__isoc99_scanf(i8* nocapture noundef readonly, ...) local_unnamed_addr #2

; Function Attrs: nofree nounwind
declare noundef i32 @printf(i8* nocapture noundef readonly, ...) local_unnamed_addr #2

; Function Attrs: argmemonly mustprogress nofree nosync nounwind willreturn
declare void @llvm.lifetime.end.p0i8(i64 immarg, i8* nocapture) #1

; Function Attrs: nofree nounwind
declare noundef i32 @puts(i8* nocapture noundef readonly) local_unnamed_addr #3


!llvm.module.flags = !{!0, !1, !2, !3}
!llvm.ident = !{!4}

!0 = !{i32 1, !"wchar_size", i32 4}
!1 = !{i32 7, !"PIC Level", i32 2}
!2 = !{i32 7, !"PIE Level", i32 2}
!3 = !{i32 7, !"uwtable", i32 1}
!4 = !{!"clang version 13.0.0"}
!5 = !{!6, !6, i64 0}
!6 = !{!"int", !7, i64 0}
!7 = !{!"omnipotent char", !8, i64 0}
!8 = !{!"Simple C/C++ TBAA"}
!9 = distinct !{!9, !10}
!10 = !{!"llvm.loop.mustprogress"}
